target datalayout = "e-m:e-p270:32:32-p271:32:32-p272:64:64-i64:64-i128:128-f80:128-n8:16:32:64-S128"
target triple = "x86_64-pc-linux-gnu"

%struct.DdNode = type { i32, i32, ptr, %union.anon, i64 }
%union.anon = type { %struct.DdChildren }
%struct.DdChildren = type { ptr, ptr }

; Function Attrs: nounwind uwtable
define ptr @cuddBddTransfer(ptr noundef %0, ptr noundef %1, ptr noundef %2) #0 {
  %4 = alloca ptr, align 8
  %5 = alloca ptr, align 8
  %6 = alloca ptr, align 8
  %7 = alloca ptr, align 8
  %8 = alloca ptr, align 8
  %9 = alloca ptr, align 8
  %10 = alloca ptr, align 8
  %11 = alloca ptr, align 8
  %12 = alloca ptr, align 8
  %13 = alloca i32, align 4
  store ptr %0, ptr %5, align 8, !tbaa !3
  store ptr %1, ptr %6, align 8, !tbaa !3
  store ptr %2, ptr %7, align 8, !tbaa !8
  call void @llvm.lifetime.start.p0(i64 8, ptr %8) #5
  call void @llvm.lifetime.start.p0(i64 8, ptr %9) #5
  store ptr null, ptr %9, align 8, !tbaa !42
  call void @llvm.lifetime.start.p0(i64 8, ptr %10) #5
  store ptr null, ptr %10, align 8, !tbaa !44
  call void @llvm.lifetime.start.p0(i64 8, ptr %11) #5
  call void @llvm.lifetime.start.p0(i64 8, ptr %12) #5
  %14 = call ptr @st__init_table(ptr noundef @st__ptrcmp, ptr noundef @st__ptrhash)
  store ptr %14, ptr %9, align 8, !tbaa !42
  %15 = load ptr, ptr %9, align 8, !tbaa !42
  %16 = icmp eq ptr %15, null
  br i1 %16, label %17, label %18

17:                                               ; preds = %3
  br label %63

18:                                               ; preds = %3
  %19 = load ptr, ptr %5, align 8, !tbaa !3
  %20 = load ptr, ptr %6, align 8, !tbaa !3
  %21 = load ptr, ptr %7, align 8, !tbaa !8
  %22 = load ptr, ptr %9, align 8, !tbaa !42
  %23 = call ptr @cuddBddTransferRecur(ptr noundef %19, ptr noundef %20, ptr noundef %21, ptr noundef %22)
  store ptr %23, ptr %8, align 8, !tbaa !8
  %24 = load ptr, ptr %8, align 8, !tbaa !8
  %25 = icmp ne ptr %24, null
  br i1 %25, label %26, label %34

26:                                               ; preds = %18
  %27 = load ptr, ptr %8, align 8, !tbaa !8
  %28 = ptrtoint ptr %27 to i64
  %29 = and i64 %28, -2
  %30 = inttoptr i64 %29 to ptr
  %31 = getelementptr inbounds nuw %struct.DdNode, ptr %30, i32 0, i32 1
  %32 = load i32, ptr %31, align 4, !tbaa !12
  %33 = add i32 %32, 1
  store i32 %33, ptr %31, align 4, !tbaa !12
  br label %34

34:                                               ; preds = %26, %18
  %35 = load ptr, ptr %9, align 8, !tbaa !42
  %36 = call ptr @st__init_gen(ptr noundef %35)
  store ptr %36, ptr %10, align 8, !tbaa !44
  %37 = load ptr, ptr %10, align 8, !tbaa !44
  %38 = icmp eq ptr %37, null
  br i1 %38, label %39, label %40

39:                                               ; preds = %34
  br label %63

40:                                               ; preds = %34
  br label %41

41:                                               ; preds = %45, %40
  %42 = load ptr, ptr %10, align 8, !tbaa !44
  %43 = call i32 @st__gen(ptr noundef %42, ptr noundef %11, ptr noundef %12)
  %44 = icmp ne i32 %43, 0
  br i1 %44, label %45, label %48

45:                                               ; preds = %41
  %46 = load ptr, ptr %6, align 8, !tbaa !3
  %47 = load ptr, ptr %12, align 8, !tbaa !8
  call void @Cudd_RecursiveDeref(ptr noundef %46, ptr noundef %47)
  br label %41, !llvm.loop !46

48:                                               ; preds = %41
  %49 = load ptr, ptr %10, align 8, !tbaa !44
  call void @st__free_gen(ptr noundef %49)
  store ptr null, ptr %10, align 8, !tbaa !44
  %50 = load ptr, ptr %9, align 8, !tbaa !42
  call void @st__free_table(ptr noundef %50)
  store ptr null, ptr %9, align 8, !tbaa !42
  %51 = load ptr, ptr %8, align 8, !tbaa !8
  %52 = icmp ne ptr %51, null
  br i1 %52, label %53, label %61

53:                                               ; preds = %48
  %54 = load ptr, ptr %8, align 8, !tbaa !8
  %55 = ptrtoint ptr %54 to i64
  %56 = and i64 %55, -2
  %57 = inttoptr i64 %56 to ptr
  %58 = getelementptr inbounds nuw %struct.DdNode, ptr %57, i32 0, i32 1
  %59 = load i32, ptr %58, align 4, !tbaa !12
  %60 = add i32 %59, -1
  store i32 %60, ptr %58, align 4, !tbaa !12
  br label %61

61:                                               ; preds = %53, %48
  %62 = load ptr, ptr %8, align 8, !tbaa !8
  store ptr %62, ptr %4, align 8
  store i32 1, ptr %13, align 4
  br label %69

63:                                               ; preds = %39, %17
  %64 = load ptr, ptr %9, align 8, !tbaa !42
  %65 = icmp ne ptr %64, null
  br i1 %65, label %66, label %68

66:                                               ; preds = %63
  %67 = load ptr, ptr %9, align 8, !tbaa !42
  call void @st__free_table(ptr noundef %67)
  br label %68

68:                                               ; preds = %66, %63
  store ptr null, ptr %4, align 8
  store i32 1, ptr %13, align 4
  br label %69

69:                                               ; preds = %68, %61
  call void @llvm.lifetime.end.p0(i64 8, ptr %12) #5
  call void @llvm.lifetime.end.p0(i64 8, ptr %11) #5
  call void @llvm.lifetime.end.p0(i64 8, ptr %10) #5
  call void @llvm.lifetime.end.p0(i64 8, ptr %9) #5
  call void @llvm.lifetime.end.p0(i64 8, ptr %8) #5
  %70 = load ptr, ptr %4, align 8
  ret ptr %70
}