; Function Attrs: nounwind uwtable
define ptr @cuddBddTransfer(ptr noundef %0, ptr noundef %1, ptr noundef %2) local_unnamed_addr #0 {
  %4 = alloca ptr, align 8
  %5 = alloca ptr, align 8
  call void @llvm.lifetime.start.p0(i64 8, ptr nonnull %4) #4
  call void @llvm.lifetime.start.p0(i64 8, ptr nonnull %5) #4
  %6 = tail call ptr @st__init_table(ptr noundef nonnull @st__ptrcmp, ptr noundef nonnull @st__ptrhash) #4
  %cond = icmp eq ptr %6, null
  br i1 %cond, label %30, label %7

7:                                                ; preds = %3
  %8 = tail call fastcc ptr @cuddBddTransferRecur(ptr noundef %0, ptr noundef %1, ptr noundef %2, ptr noundef %6)
  %.not = icmp eq ptr %8, null
  br i1 %.not, label %16, label %9

9:                                                ; preds = %7
  %10 = ptrtoint ptr %8 to i64
  %11 = and i64 %10, -2
  %12 = inttoptr i64 %11 to ptr
  %13 = getelementptr inbounds nuw i8, ptr %12, i64 4
  %14 = load i32, ptr %13, align 4, !tbaa !3
  %15 = add i32 %14, 1
  store i32 %15, ptr %13, align 4, !tbaa !3
  br label %16

16:                                               ; preds = %9, %7
  %17 = tail call ptr @st__init_gen(ptr noundef nonnull %6) #4
  %18 = icmp eq ptr %17, null
  br i1 %18, label %29, label %.preheader

.preheader:                                       ; preds = %16
  %19 = call i32 @st__gen(ptr noundef nonnull %17, ptr noundef nonnull %4, ptr noundef nonnull %5) #4
  %.not2224 = icmp eq i32 %19, 0
  br i1 %.not2224, label %._crit_edge, label %.lr.ph

.lr.ph:                                           ; preds = %.preheader, %.lr.ph
  %20 = load ptr, ptr %5, align 8, !tbaa !37
  call void @Cudd_RecursiveDeref(ptr noundef %1, ptr noundef %20) #4
  %21 = call i32 @st__gen(ptr noundef nonnull %17, ptr noundef nonnull %4, ptr noundef nonnull %5) #4
  %.not22 = icmp eq i32 %21, 0
  br i1 %.not22, label %._crit_edge, label %.lr.ph, !llvm.loop !38

._crit_edge:                                      ; preds = %.lr.ph, %.preheader
  call void @st__free_gen(ptr noundef nonnull %17) #4
  call void @st__free_table(ptr noundef nonnull %6) #4
  br i1 %.not, label %30, label %22

22:                                               ; preds = %._crit_edge
  %23 = ptrtoint ptr %8 to i64
  %24 = and i64 %23, -2
  %25 = inttoptr i64 %24 to ptr
  %26 = getelementptr inbounds nuw i8, ptr %25, i64 4
  %27 = load i32, ptr %26, align 4, !tbaa !3
  %28 = add i32 %27, -1
  store i32 %28, ptr %26, align 4, !tbaa !3
  br label %30

29:                                               ; preds = %16
  tail call void @st__free_table(ptr noundef nonnull %6) #4
  br label %30

30:                                               ; preds = %3, %29, %._crit_edge, %22
  %.0 = phi ptr [ %8, %22 ], [ null, %._crit_edge ], [ null, %3 ], [ null, %29 ]
  call void @llvm.lifetime.end.p0(i64 8, ptr nonnull %5) #4
  call void @llvm.lifetime.end.p0(i64 8, ptr nonnull %4) #4
  ret ptr %.0
}